; Function Attrs: mustprogress nounwind uwtable
define hidden void @_ZN6hermes2vm17sampling_profiler7Sampler17unregisterRuntimeEPNS0_16SamplingProfilerE(ptr noundef nonnull align 8 dereferenceable(208) %this, ptr noundef %profiler) local_unnamed_addr #0 align 2 {
entry:
  %profiler.addr = alloca ptr, align 8
  store ptr %profiler, ptr %profiler.addr, align 8
  %profilerLock_ = getelementptr inbounds i8, ptr %this, i64 8
  %call1.i.i.i = tail call noundef i32 @pthread_mutex_lock(ptr noundef nonnull %profilerLock_) #14
  %tobool.not.i.i = icmp eq i32 %call1.i.i.i, 0
  br i1 %tobool.not.i.i, label %_ZNSt10lock_guardISt5mutexEC2ERS0_.exit, label %if.then.i.i

if.then.i.i:                                      ; preds = %entry
  tail call void @_ZSt20__throw_system_errori(i32 noundef %call1.i.i.i) #15
  unreachable

_ZNSt10lock_guardISt5mutexEC2ERS0_.exit:          ; preds = %entry
  %profilers_ = getelementptr inbounds i8, ptr %this, i64 48
  %call.i.i = call noundef i64 @_ZNSt10_HashtableIPN6hermes2vm16SamplingProfilerES3_SaIS3_ENSt8__detail9_IdentityESt8equal_toIS3_ESt4hashIS3_ENS5_18_Mod_range_hashingENS5_20_Default_ranged_hashENS5_20_Prime_rehash_policyENS5_17_Hashtable_traitsILb0ELb1ELb1EEEE8_M_eraseESt17integral_constantIbLb1EERKS3_(ptr noundef nonnull align 8 dereferenceable(56) %profilers_, ptr noundef nonnull align 8 dereferenceable(8) %profiler.addr)
  %0 = load ptr, ptr %profiler.addr, align 8
  call void @_ZN6hermes2vm17sampling_profiler7Sampler25platformUnregisterRuntimeEPNS0_16SamplingProfilerE(ptr noundef nonnull align 8 dereferenceable(208) %this, ptr noundef %0) #14
  %call1.i.i.i1 = call noundef i32 @pthread_mutex_unlock(ptr noundef nonnull %profilerLock_) #14
  ret void
}